; Function Attrs: cold nounwind optsize uwtable
define internal void @frame_merge_flush(ptr noundef readonly captures(none) %0) #0 {
  %2 = getelementptr inbounds nuw i8, ptr %0, i64 16
  %3 = load ptr, ptr %2, align 8, !tbaa !4
  %4 = getelementptr inbounds nuw i8, ptr %3, i64 20
  store i32 0, ptr %4, align 4, !tbaa !24
  %5 = getelementptr inbounds nuw i8, ptr %3, i64 16
  store i32 0, ptr %5, align 8, !tbaa !25
  %6 = getelementptr inbounds nuw i8, ptr %3, i64 8
  %7 = load ptr, ptr %6, align 8, !tbaa !14
  tail call void @av_packet_unref(ptr noundef %7) #5
  %8 = load ptr, ptr %3, align 8, !tbaa !17
  tail call void @av_packet_unref(ptr noundef %8) #5
  ret void
}